target datalayout = "e-m:e-p270:32:32-p271:32:32-p272:64:64-i64:64-i128:128-f80:128-n8:16:32:64-S128"
target triple = "x86_64-pc-linux-gnu"

%struct.archive_read = type { %struct.archive, ptr, i32, i64, i64, %struct.archive_read_client, [16 x %struct.archive_read_filter_bidder], ptr, i32, i64, i32, i32, [16 x %struct.archive_format_descriptor], ptr, ptr, ptr, %struct.anon }
%struct.archive = type { i32, i32, ptr, i32, ptr, i32, i32, ptr, %struct.archive_string, ptr, i32, i32, ptr, ptr, i64, i64, i64, i8, i64 }
%struct.archive_string = type { ptr, i64, i64 }
%struct.archive_read_client = type { ptr, ptr, ptr, ptr, ptr, ptr, i32, i32, i64, ptr }
%struct.archive_read_filter_bidder = type { ptr, ptr, ptr }
%struct.archive_format_descriptor = type { ptr, ptr, ptr, ptr, ptr, ptr, ptr, ptr, ptr, ptr, ptr }
%struct.anon = type { ptr, ptr, i32, ptr, ptr }
%struct.lha = type { i64, i64, i64, i16, i64, i8, [3 x i8], i64, i64, i32, i64, i64, i64, i64, i64, i64, i32, i64, i64, %struct.archive_string, %struct.archive_string, i16, i16, ptr, ptr, ptr, %struct.archive_string, %struct.archive_string, %struct.archive_wstring, i8, i8, i8, i8, i8, i8, i8, [64 x i8], %struct.lzh_stream }
%struct.archive_wstring = type { ptr, i64, i64 }
%struct.lzh_stream = type { ptr, i32, i64, ptr, i32, i64, ptr }

@.str = private unnamed_addr constant [32 x i8] c"archive_read_support_format_lha\00", align 1
@.str.1 = private unnamed_addr constant [24 x i8] c"Can't allocate lha data\00", align 1
@.str.2 = private unnamed_addr constant [4 x i8] c"lha\00", align 1

; Function Attrs: nounwind uwtable
define dso_local i32 @archive_read_support_format_lha(ptr noundef %0) #0 {
  %2 = alloca i32, align 4
  %3 = alloca ptr, align 8
  %4 = alloca ptr, align 8
  %5 = alloca ptr, align 8
  %6 = alloca i32, align 4
  %7 = alloca i32, align 4
  %8 = alloca i32, align 4
  store ptr %0, ptr %3, align 8, !tbaa !4
  call void @llvm.lifetime.start.p0(i64 8, ptr %4) #11
  %9 = load ptr, ptr %3, align 8, !tbaa !4
  store ptr %9, ptr %4, align 8, !tbaa !9
  call void @llvm.lifetime.start.p0(i64 8, ptr %5) #11
  call void @llvm.lifetime.start.p0(i64 4, ptr %6) #11
  br label %10

10:                                               ; preds = %1
  call void @llvm.lifetime.start.p0(i64 4, ptr %7) #11
  %11 = load ptr, ptr %3, align 8, !tbaa !4
  %12 = call i32 @__archive_check_magic(ptr noundef %11, i32 noundef 14594245, i32 noundef 1, ptr noundef @.str)
  store i32 %12, ptr %7, align 4, !tbaa !11
  %13 = load i32, ptr %7, align 4, !tbaa !11
  %14 = icmp eq i32 %13, -30
  br i1 %14, label %15, label %16

15:                                               ; preds = %10
  store i32 -30, ptr %2, align 4
  store i32 1, ptr %8, align 4
  br label %17

16:                                               ; preds = %10
  store i32 0, ptr %8, align 4
  br label %17

17:                                               ; preds = %16, %15
  call void @llvm.lifetime.end.p0(i64 4, ptr %7) #11
  %18 = load i32, ptr %8, align 4
  switch i32 %18, label %49 [
    i32 0, label %19
  ]

19:                                               ; preds = %17
  br label %20

20:                                               ; preds = %19
  br label %21

21:                                               ; preds = %20
  %22 = call noalias ptr @calloc(i64 noundef 1, i64 noundef 424) #12
  store ptr %22, ptr %5, align 8, !tbaa !13
  %23 = load ptr, ptr %5, align 8, !tbaa !13
  %24 = icmp eq ptr %23, null
  br i1 %24, label %25, label %28

25:                                               ; preds = %21
  %26 = load ptr, ptr %4, align 8, !tbaa !9
  %27 = getelementptr inbounds nuw %struct.archive_read, ptr %26, i32 0, i32 0
  call void (ptr, i32, ptr, ...) @archive_set_error(ptr noundef %27, i32 noundef 12, ptr noundef @.str.1)
  store i32 -30, ptr %2, align 4
  store i32 1, ptr %8, align 4
  br label %49

28:                                               ; preds = %21
  br label %29

29:                                               ; preds = %28
  %30 = load ptr, ptr %5, align 8, !tbaa !13
  %31 = getelementptr inbounds nuw %struct.lha, ptr %30, i32 0, i32 28
  %32 = getelementptr inbounds nuw %struct.archive_wstring, ptr %31, i32 0, i32 0
  store ptr null, ptr %32, align 8, !tbaa !15
  %33 = load ptr, ptr %5, align 8, !tbaa !13
  %34 = getelementptr inbounds nuw %struct.lha, ptr %33, i32 0, i32 28
  %35 = getelementptr inbounds nuw %struct.archive_wstring, ptr %34, i32 0, i32 1
  store i64 0, ptr %35, align 8, !tbaa !26
  %36 = load ptr, ptr %5, align 8, !tbaa !13
  %37 = getelementptr inbounds nuw %struct.lha, ptr %36, i32 0, i32 28
  %38 = getelementptr inbounds nuw %struct.archive_wstring, ptr %37, i32 0, i32 2
  store i64 0, ptr %38, align 8, !tbaa !27
  br label %39

39:                                               ; preds = %29
  br label %40

40:                                               ; preds = %39
  %41 = load ptr, ptr %4, align 8, !tbaa !9
  %42 = load ptr, ptr %5, align 8, !tbaa !13
  %43 = call i32 @__archive_read_register_format(ptr noundef %41, ptr noundef %42, ptr noundef @.str.2, ptr noundef @archive_read_format_lha_bid, ptr noundef @archive_read_format_lha_options, ptr noundef @archive_read_format_lha_read_header, ptr noundef @archive_read_format_lha_read_data, ptr noundef @archive_read_format_lha_read_data_skip, ptr noundef null, ptr noundef @archive_read_format_lha_cleanup, ptr noundef null, ptr noundef null)
  store i32 %43, ptr %6, align 4, !tbaa !11
  %44 = load i32, ptr %6, align 4, !tbaa !11
  %45 = icmp ne i32 %44, 0
  br i1 %45, label %46, label %48

46:                                               ; preds = %40
  %47 = load ptr, ptr %5, align 8, !tbaa !13
  call void @free(ptr noundef %47) #11
  br label %48

48:                                               ; preds = %46, %40
  store i32 0, ptr %2, align 4
  store i32 1, ptr %8, align 4
  br label %49

49:                                               ; preds = %48, %25, %17
  call void @llvm.lifetime.end.p0(i64 4, ptr %6) #11
  call void @llvm.lifetime.end.p0(i64 8, ptr %5) #11
  call void @llvm.lifetime.end.p0(i64 8, ptr %4) #11
  %50 = load i32, ptr %2, align 4
  ret i32 %50
}