; Function Attrs: nounwind uwtable
define dso_local range(i32 -30, 1) i32 @archive_read_support_format_lha(ptr noundef %0) local_unnamed_addr #0 {
  %2 = tail call i32 @__archive_check_magic(ptr noundef %0, i32 noundef 14594245, i32 noundef 1, ptr noundef nonnull @.str) #18
  %.not = icmp eq i32 %2, -30
  br i1 %.not, label %10, label %3

3:                                                ; preds = %1
  %4 = tail call noalias dereferenceable_or_null(424) ptr @calloc(i64 noundef 1, i64 noundef 424) #19
  %5 = icmp eq ptr %4, null
  br i1 %5, label %6, label %7

6:                                                ; preds = %3
  tail call void (ptr, i32, ptr, ...) @archive_set_error(ptr noundef %0, i32 noundef 12, ptr noundef nonnull @.str.1) #18
  br label %10

7:                                                ; preds = %3
  %8 = tail call i32 @__archive_read_register_format(ptr noundef %0, ptr noundef nonnull %4, ptr noundef nonnull @.str.2, ptr noundef nonnull @archive_read_format_lha_bid, ptr noundef nonnull @archive_read_format_lha_options, ptr noundef nonnull @archive_read_format_lha_read_header, ptr noundef nonnull @archive_read_format_lha_read_data, ptr noundef nonnull @archive_read_format_lha_read_data_skip, ptr noundef null, ptr noundef nonnull @archive_read_format_lha_cleanup, ptr noundef null, ptr noundef null) #18
  %.not15 = icmp eq i32 %8, 0
  br i1 %.not15, label %10, label %9

9:                                                ; preds = %7
  tail call void @free(ptr noundef nonnull %4) #18
  br label %10

10:                                               ; preds = %7, %9, %1, %6
  %.1 = phi i32 [ -30, %6 ], [ -30, %1 ], [ 0, %9 ], [ 0, %7 ]
  ret i32 %.1
}